target datalayout = "e-m:e-p270:32:32-p271:32:32-p272:64:64-i64:64-i128:128-f80:128-n8:16:32:64-S128"
target triple = "x86_64-unknown-linux-gnu"

%struct.Node = type { i32, ptr, ptr, ptr, ptr, ptr, ptr, ptr, ptr, ptr, ptr, ptr, ptr, ptr, ptr, ptr, ptr, i8, ptr, ptr, ptr, ptr, ptr, ptr, i64, i64, ptr, ptr, ptr, ptr, ptr, ptr, ptr, i64, x86_fp80 }

; Function Attrs: nounwind uwtable
define internal void @usual_arith_conv(ptr noundef %lhs, ptr noundef %rhs) #0 {
entry:
  %lhs.addr = alloca ptr, align 8
  %rhs.addr = alloca ptr, align 8
  %ty = alloca ptr, align 8
  store ptr %lhs, ptr %lhs.addr, align 8
  store ptr %rhs, ptr %rhs.addr, align 8
  %0 = load ptr, ptr %lhs.addr, align 8
  %1 = load ptr, ptr %0, align 8
  %ty1 = getelementptr inbounds %struct.Node, ptr %1, i32 0, i32 2
  %2 = load ptr, ptr %ty1, align 16
  %3 = load ptr, ptr %rhs.addr, align 8
  %4 = load ptr, ptr %3, align 8
  %ty2 = getelementptr inbounds %struct.Node, ptr %4, i32 0, i32 2
  %5 = load ptr, ptr %ty2, align 16
  %call = call ptr @get_common_type(ptr noundef %2, ptr noundef %5)
  store ptr %call, ptr %ty, align 8
  %6 = load ptr, ptr %lhs.addr, align 8
  %7 = load ptr, ptr %6, align 8
  %8 = load ptr, ptr %ty, align 8
  %call3 = call ptr @new_cast(ptr noundef %7, ptr noundef %8)
  %9 = load ptr, ptr %lhs.addr, align 8
  store ptr %call3, ptr %9, align 8
  %10 = load ptr, ptr %rhs.addr, align 8
  %11 = load ptr, ptr %10, align 8
  %12 = load ptr, ptr %ty, align 8
  %call4 = call ptr @new_cast(ptr noundef %11, ptr noundef %12)
  %13 = load ptr, ptr %rhs.addr, align 8
  store ptr %call4, ptr %13, align 8
  ret void
}