; Function Attrs: nounwind uwtable
define internal fastcc void @usual_arith_conv(ptr nocapture noundef %lhs, ptr nocapture noundef %rhs) unnamed_addr #7 {
entry:
  %0 = load ptr, ptr %lhs, align 8
  %ty1 = getelementptr inbounds %struct.Node, ptr %0, i64 0, i32 2
  %1 = load ptr, ptr %ty1, align 16
  %2 = load ptr, ptr %rhs, align 8
  %ty2 = getelementptr inbounds %struct.Node, ptr %2, i64 0, i32 2
  %3 = load ptr, ptr %ty2, align 16
  %call = tail call fastcc ptr @get_common_type(ptr noundef %1, ptr noundef %3)
  %4 = load ptr, ptr %lhs, align 8
  %call3 = tail call ptr @new_cast(ptr noundef %4, ptr noundef %call) #12
  store ptr %call3, ptr %lhs, align 8
  %5 = load ptr, ptr %rhs, align 8
  %call4 = tail call ptr @new_cast(ptr noundef %5, ptr noundef %call) #12
  store ptr %call4, ptr %rhs, align 8
  ret void
}